target datalayout = "e-m:e-p270:32:32-p271:32:32-p272:64:64-i64:64-i128:128-f80:128-n8:16:32:64-S128"
target triple = "x86_64-pc-linux-gnu"

@mtp3_standard = hidden global i32 1, align 4
@itu_pc_structure = internal global i32 1, align 4
@japan_pc_structure = internal global i32 1, align 4
@.str.22 = private unnamed_addr constant [3 x i8] c"%u\00", align 1
@.str.122 = private unnamed_addr constant [9 x i8] c"%u-%u-%u\00", align 1
@.str.123 = private unnamed_addr constant [12 x i8] c"%u-%u-%u-%u\00", align 1
@.str.124 = private unnamed_addr constant [55 x i8] c"%s:%u: failed assertion \22DISSECTOR_ASSERT_NOT_REACHED\22\00", align 1
@.str.125 = private unnamed_addr constant [30 x i8] c"epan/dissectors/packet-mtp3.c\00", align 1

; Function Attrs: null_pointer_is_valid sspstrong uwtable
define internal void @mtp3_pc_to_str_buf(i32 noundef %0, ptr noundef %1, i32 noundef %2) #0 {
  %4 = alloca i32, align 4
  %5 = alloca ptr, align 8
  %6 = alloca i32, align 4
  store i32 %0, ptr %4, align 4
  store ptr %1, ptr %5, align 8
  store i32 %2, ptr %6, align 4
  %7 = load i32, ptr @mtp3_standard, align 4
  switch i32 %7, label %115 [
    i32 1, label %8
    i32 2, label %55
    i32 3, label %55
    i32 4, label %70
  ]

8:                                                ; preds = %3
  %9 = load i32, ptr @itu_pc_structure, align 4
  switch i32 %9, label %53 [
    i32 1, label %10
    i32 2, label %18
    i32 3, label %34
  ]

10:                                               ; preds = %8
  %11 = load ptr, ptr %5, align 8
  %12 = load i32, ptr %6, align 4
  %13 = sext i32 %12 to i64
  %14 = load ptr, ptr %5, align 8
  %15 = call i64 @llvm.objectsize.i64.p0(ptr %14, i1 false, i1 true, i1 true)
  %16 = load i32, ptr %4, align 4
  %17 = call i32 (ptr, i64, i32, i64, ptr, ...) @__snprintf_chk(ptr noundef %11, i64 noundef %13, i32 noundef 2, i64 noundef %15, ptr noundef @.str.22, i32 noundef %16)
  br label %54

18:                                               ; preds = %8
  %19 = load ptr, ptr %5, align 8
  %20 = load i32, ptr %6, align 4
  %21 = sext i32 %20 to i64
  %22 = load ptr, ptr %5, align 8
  %23 = call i64 @llvm.objectsize.i64.p0(ptr %22, i1 false, i1 true, i1 true)
  %24 = load i32, ptr %4, align 4
  %25 = and i32 %24, 14336
  %26 = lshr i32 %25, 11
  %27 = load i32, ptr %4, align 4
  %28 = and i32 %27, 2040
  %29 = lshr i32 %28, 3
  %30 = load i32, ptr %4, align 4
  %31 = and i32 %30, 7
  %32 = lshr i32 %31, 0
  %33 = call i32 (ptr, i64, i32, i64, ptr, ...) @__snprintf_chk(ptr noundef %19, i64 noundef %21, i32 noundef 2, i64 noundef %23, ptr noundef @.str.122, i32 noundef %26, i32 noundef %29, i32 noundef %32)
  br label %54

34:                                               ; preds = %8
  %35 = load ptr, ptr %5, align 8
  %36 = load i32, ptr %6, align 4
  %37 = sext i32 %36 to i64
  %38 = load ptr, ptr %5, align 8
  %39 = call i64 @llvm.objectsize.i64.p0(ptr %38, i1 false, i1 true, i1 true)
  %40 = load i32, ptr %4, align 4
  %41 = and i32 %40, 15360
  %42 = lshr i32 %41, 10
  %43 = load i32, ptr %4, align 4
  %44 = and i32 %43, 896
  %45 = lshr i32 %44, 7
  %46 = load i32, ptr %4, align 4
  %47 = and i32 %46, 120
  %48 = lshr i32 %47, 3
  %49 = load i32, ptr %4, align 4
  %50 = and i32 %49, 7
  %51 = lshr i32 %50, 0
  %52 = call i32 (ptr, i64, i32, i64, ptr, ...) @__snprintf_chk(ptr noundef %35, i64 noundef %37, i32 noundef 2, i64 noundef %39, ptr noundef @.str.123, i32 noundef %42, i32 noundef %45, i32 noundef %48, i32 noundef %51)
  br label %54

53:                                               ; preds = %8
  call void (ptr, ...) @proto_report_dissector_bug(ptr noundef @.str.124, ptr noundef @.str.125, i32 noundef 249) #13
  unreachable

54:                                               ; preds = %34, %18, %10
  br label %116

55:                                               ; preds = %3, %3
  %56 = load ptr, ptr %5, align 8
  %57 = load i32, ptr %6, align 4
  %58 = sext i32 %57 to i64
  %59 = load ptr, ptr %5, align 8
  %60 = call i64 @llvm.objectsize.i64.p0(ptr %59, i1 false, i1 true, i1 true)
  %61 = load i32, ptr %4, align 4
  %62 = and i32 %61, 16711680
  %63 = lshr i32 %62, 16
  %64 = load i32, ptr %4, align 4
  %65 = and i32 %64, 65280
  %66 = lshr i32 %65, 8
  %67 = load i32, ptr %4, align 4
  %68 = and i32 %67, 255
  %69 = call i32 (ptr, i64, i32, i64, ptr, ...) @__snprintf_chk(ptr noundef %56, i64 noundef %58, i32 noundef 2, i64 noundef %60, ptr noundef @.str.122, i32 noundef %63, i32 noundef %66, i32 noundef %68)
  br label %116

70:                                               ; preds = %3
  %71 = load i32, ptr @japan_pc_structure, align 4
  switch i32 %71, label %113 [
    i32 1, label %72
    i32 2, label %80
    i32 3, label %95
  ]

72:                                               ; preds = %70
  %73 = load ptr, ptr %5, align 8
  %74 = load i32, ptr %6, align 4
  %75 = sext i32 %74 to i64
  %76 = load ptr, ptr %5, align 8
  %77 = call i64 @llvm.objectsize.i64.p0(ptr %76, i1 false, i1 true, i1 true)
  %78 = load i32, ptr %4, align 4
  %79 = call i32 (ptr, i64, i32, i64, ptr, ...) @__snprintf_chk(ptr noundef %73, i64 noundef %75, i32 noundef 2, i64 noundef %77, ptr noundef @.str.22, i32 noundef %78)
  br label %114

80:                                               ; preds = %70
  %81 = load ptr, ptr %5, align 8
  %82 = load i32, ptr %6, align 4
  %83 = sext i32 %82 to i64
  %84 = load ptr, ptr %5, align 8
  %85 = call i64 @llvm.objectsize.i64.p0(ptr %84, i1 false, i1 true, i1 true)
  %86 = load i32, ptr %4, align 4
  %87 = and i32 %86, 65024
  %88 = lshr i32 %87, 9
  %89 = load i32, ptr %4, align 4
  %90 = and i32 %89, 480
  %91 = lshr i32 %90, 5
  %92 = load i32, ptr %4, align 4
  %93 = and i32 %92, 31
  %94 = call i32 (ptr, i64, i32, i64, ptr, ...) @__snprintf_chk(ptr noundef %81, i64 noundef %83, i32 noundef 2, i64 noundef %85, ptr noundef @.str.122, i32 noundef %88, i32 noundef %91, i32 noundef %93)
  br label %114

95:                                               ; preds = %70
  %96 = load ptr, ptr %5, align 8
  %97 = load i32, ptr %6, align 4
  %98 = sext i32 %97 to i64
  %99 = load ptr, ptr %5, align 8
  %100 = call i64 @llvm.objectsize.i64.p0(ptr %99, i1 false, i1 true, i1 true)
  %101 = load i32, ptr %4, align 4
  %102 = and i32 %101, 57344
  %103 = lshr i32 %102, 13
  %104 = load i32, ptr %4, align 4
  %105 = and i32 %104, 7680
  %106 = lshr i32 %105, 9
  %107 = load i32, ptr %4, align 4
  %108 = and i32 %107, 480
  %109 = lshr i32 %108, 5
  %110 = load i32, ptr %4, align 4
  %111 = and i32 %110, 31
  %112 = call i32 (ptr, i64, i32, i64, ptr, ...) @__snprintf_chk(ptr noundef %96, i64 noundef %98, i32 noundef 2, i64 noundef %100, ptr noundef @.str.123, i32 noundef %103, i32 noundef %106, i32 noundef %109, i32 noundef %111)
  br label %114

113:                                              ; preds = %70
  call void (ptr, ...) @proto_report_dissector_bug(ptr noundef @.str.124, ptr noundef @.str.125, i32 noundef 270) #13
  unreachable

114:                                              ; preds = %95, %80, %72
  br label %116

115:                                              ; preds = %3
  call void (ptr, ...) @proto_report_dissector_bug(ptr noundef @.str.124, ptr noundef @.str.125, i32 noundef 274) #13
  unreachable

116:                                              ; preds = %114, %55, %54
  ret void
}