; Function Attrs: null_pointer_is_valid sspstrong uwtable
define internal fastcc void @mtp3_pc_to_str_buf(i32 noundef %0, ptr noundef %1, i32 noundef %2) unnamed_addr #0 {
  %4 = load i32, ptr @mtp3_standard, align 4
  switch i32 %4, label %61 [
    i32 1, label %5
    i32 2, label %29
    i32 3, label %29
    i32 4, label %37
  ]

5:                                                ; preds = %3
  %6 = load i32, ptr @itu_pc_structure, align 4
  switch i32 %6, label %28 [
    i32 1, label %7
    i32 2, label %10
    i32 3, label %18
  ]

7:                                                ; preds = %5
  %8 = sext i32 %2 to i64
  %9 = tail call i32 (ptr, i64, i32, i64, ptr, ...) @__snprintf_chk(ptr noundef %1, i64 noundef %8, i32 noundef 2, i64 noundef -1, ptr noundef nonnull @.str.22, i32 noundef %0)
  br label %62

10:                                               ; preds = %5
  %11 = sext i32 %2 to i64
  %12 = lshr i32 %0, 11
  %13 = and i32 %12, 7
  %14 = lshr i32 %0, 3
  %15 = and i32 %14, 255
  %16 = and i32 %0, 7
  %17 = tail call i32 (ptr, i64, i32, i64, ptr, ...) @__snprintf_chk(ptr noundef %1, i64 noundef %11, i32 noundef 2, i64 noundef -1, ptr noundef nonnull @.str.122, i32 noundef %13, i32 noundef %15, i32 noundef %16)
  br label %62

18:                                               ; preds = %5
  %19 = sext i32 %2 to i64
  %20 = lshr i32 %0, 10
  %21 = and i32 %20, 15
  %22 = lshr i32 %0, 7
  %23 = and i32 %22, 7
  %24 = lshr i32 %0, 3
  %25 = and i32 %24, 15
  %26 = and i32 %0, 7
  %27 = tail call i32 (ptr, i64, i32, i64, ptr, ...) @__snprintf_chk(ptr noundef %1, i64 noundef %19, i32 noundef 2, i64 noundef -1, ptr noundef nonnull @.str.123, i32 noundef %21, i32 noundef %23, i32 noundef %25, i32 noundef %26)
  br label %62

28:                                               ; preds = %5
  tail call void (ptr, ...) @proto_report_dissector_bug(ptr noundef nonnull @.str.124, ptr noundef nonnull @.str.125, i32 noundef 249) #15
  unreachable

29:                                               ; preds = %3, %3
  %30 = sext i32 %2 to i64
  %31 = lshr i32 %0, 16
  %32 = and i32 %31, 255
  %33 = lshr i32 %0, 8
  %34 = and i32 %33, 255
  %35 = and i32 %0, 255
  %36 = tail call i32 (ptr, i64, i32, i64, ptr, ...) @__snprintf_chk(ptr noundef %1, i64 noundef %30, i32 noundef 2, i64 noundef -1, ptr noundef nonnull @.str.122, i32 noundef %32, i32 noundef %34, i32 noundef %35)
  br label %62

37:                                               ; preds = %3
  %38 = load i32, ptr @japan_pc_structure, align 4
  switch i32 %38, label %60 [
    i32 1, label %39
    i32 2, label %42
    i32 3, label %50
  ]

39:                                               ; preds = %37
  %40 = sext i32 %2 to i64
  %41 = tail call i32 (ptr, i64, i32, i64, ptr, ...) @__snprintf_chk(ptr noundef %1, i64 noundef %40, i32 noundef 2, i64 noundef -1, ptr noundef nonnull @.str.22, i32 noundef %0)
  br label %62

42:                                               ; preds = %37
  %43 = sext i32 %2 to i64
  %44 = lshr i32 %0, 9
  %45 = and i32 %44, 127
  %46 = lshr i32 %0, 5
  %47 = and i32 %46, 15
  %48 = and i32 %0, 31
  %49 = tail call i32 (ptr, i64, i32, i64, ptr, ...) @__snprintf_chk(ptr noundef %1, i64 noundef %43, i32 noundef 2, i64 noundef -1, ptr noundef nonnull @.str.122, i32 noundef %45, i32 noundef %47, i32 noundef %48)
  br label %62

50:                                               ; preds = %37
  %51 = sext i32 %2 to i64
  %52 = lshr i32 %0, 13
  %53 = and i32 %52, 7
  %54 = lshr i32 %0, 9
  %55 = and i32 %54, 15
  %56 = lshr i32 %0, 5
  %57 = and i32 %56, 15
  %58 = and i32 %0, 31
  %59 = tail call i32 (ptr, i64, i32, i64, ptr, ...) @__snprintf_chk(ptr noundef %1, i64 noundef %51, i32 noundef 2, i64 noundef -1, ptr noundef nonnull @.str.123, i32 noundef %53, i32 noundef %55, i32 noundef %57, i32 noundef %58)
  br label %62

60:                                               ; preds = %37
  tail call void (ptr, ...) @proto_report_dissector_bug(ptr noundef nonnull @.str.124, ptr noundef nonnull @.str.125, i32 noundef 270) #15
  unreachable

61:                                               ; preds = %3
  tail call void (ptr, ...) @proto_report_dissector_bug(ptr noundef nonnull @.str.124, ptr noundef nonnull @.str.125, i32 noundef 274) #15
  unreachable

62:                                               ; preds = %39, %42, %50, %7, %10, %18, %29
  ret void
}